target datalayout = "e-m:e-p270:32:32-p271:32:32-p272:64:64-i64:64-i128:128-f80:128-n8:16:32:64-S128"
target triple = "x86_64-pc-linux-gnu"

; Function Attrs: mustprogress nounwind uwtable
define void @_ZN18duckdb_fastpforlib8internal14__fastunpack64EPKjPm(ptr noalias noundef %0, ptr noalias noundef %1) #0 {
  %3 = alloca ptr, align 8
  %4 = alloca ptr, align 8
  %5 = alloca i32, align 4
  store ptr %0, ptr %3, align 8, !tbaa !16
  store ptr %1, ptr %4, align 8, !tbaa !21
  call void @llvm.lifetime.start.p0(i64 4, ptr %5) #3
  store i32 0, ptr %5, align 4, !tbaa !18
  br label %6

6:                                                ; preds = %37, %2
  %7 = load i32, ptr %5, align 4, !tbaa !18
  %8 = icmp slt i32 %7, 32
  br i1 %8, label %10, label %9

9:                                                ; preds = %6
  call void @llvm.lifetime.end.p0(i64 4, ptr %5) #3
  br label %40

10:                                               ; preds = %6
  %11 = load ptr, ptr %3, align 8, !tbaa !16
  %12 = load i32, ptr %5, align 4, !tbaa !18
  %13 = mul nsw i32 %12, 2
  %14 = sext i32 %13 to i64
  %15 = getelementptr inbounds i32, ptr %11, i64 %14
  %16 = load i32, ptr %15, align 4, !tbaa !18
  %17 = zext i32 %16 to i64
  %18 = load ptr, ptr %4, align 8, !tbaa !21
  %19 = load i32, ptr %5, align 4, !tbaa !18
  %20 = sext i32 %19 to i64
  %21 = getelementptr inbounds i64, ptr %18, i64 %20
  store i64 %17, ptr %21, align 8, !tbaa !23
  %22 = load ptr, ptr %3, align 8, !tbaa !16
  %23 = load i32, ptr %5, align 4, !tbaa !18
  %24 = mul nsw i32 %23, 2
  %25 = add nsw i32 %24, 1
  %26 = sext i32 %25 to i64
  %27 = getelementptr inbounds i32, ptr %22, i64 %26
  %28 = load i32, ptr %27, align 4, !tbaa !18
  %29 = zext i32 %28 to i64
  %30 = shl i64 %29, 32
  %31 = load ptr, ptr %4, align 8, !tbaa !21
  %32 = load i32, ptr %5, align 4, !tbaa !18
  %33 = sext i32 %32 to i64
  %34 = getelementptr inbounds i64, ptr %31, i64 %33
  %35 = load i64, ptr %34, align 8, !tbaa !23
  %36 = or i64 %35, %30
  store i64 %36, ptr %34, align 8, !tbaa !23
  br label %37

37:                                               ; preds = %10
  %38 = load i32, ptr %5, align 4, !tbaa !18
  %39 = add nsw i32 %38, 1
  store i32 %39, ptr %5, align 4, !tbaa !18
  br label %6, !llvm.loop !54

40:                                               ; preds = %9
  ret void
}