; Function Attrs: mustprogress nofree norecurse nosync nounwind memory(argmem: readwrite) uwtable
define void @_ZN18duckdb_fastpforlib8internal14__fastunpack64EPKjPm(ptr noalias noundef readonly captures(none) %0, ptr noalias noundef writeonly captures(none) %1) local_unnamed_addr #3 {
  br label %4

3:                                                ; preds = %4
  ret void

4:                                                ; preds = %2, %4
  %indvars.iv = phi i64 [ 0, %2 ], [ %indvars.iv.next, %4 ]
  %5 = shl nuw nsw i64 %indvars.iv, 1
  %6 = getelementptr inbounds nuw i32, ptr %0, i64 %5
  %7 = load i32, ptr %6, align 4, !tbaa !7
  %8 = zext i32 %7 to i64
  %9 = getelementptr inbounds nuw i64, ptr %1, i64 %indvars.iv
  %10 = or disjoint i64 %5, 1
  %11 = getelementptr inbounds nuw i32, ptr %0, i64 %10
  %12 = load i32, ptr %11, align 4, !tbaa !7
  %13 = zext i32 %12 to i64
  %14 = shl nuw i64 %13, 32
  %15 = or disjoint i64 %14, %8
  store i64 %15, ptr %9, align 8, !tbaa !9
  %indvars.iv.next = add nuw nsw i64 %indvars.iv, 1
  %exitcond.not = icmp eq i64 %indvars.iv.next, 32
  br i1 %exitcond.not, label %3, label %4, !llvm.loop !8859
}